target datalayout = "e-m:e-p270:32:32-p271:32:32-p272:64:64-i64:64-i128:128-f80:128-n8:16:32:64-S128"
target triple = "x86_64-pc-linux-gnu"

%"struct.gmx::IMDSocket" = type { %struct.sockaddr_in, i32 }
%struct.sockaddr_in = type { i16, i16, %struct.in_addr, [8 x i8] }
%struct.in_addr = type { i32 }

@.str.1 = private unnamed_addr constant [123 x i8] c"generated/home/dtcxzyw/WorkSpace/Projects/compilers/llvm-opt-benchmark/bench/gromacs/gromacs/src/gromacs/imd/imdsocket.cpp\00", align 1
@stderr = external global ptr, align 8
@_ZN3gmxL6IMDstrE = internal constant [5 x i8] c"IMD:\00", align 1
@.str.6 = private unnamed_addr constant [66 x i8] c"%s Failed to shutdown socket. Did the client already disconnect?\0A\00", align 1

; Function Attrs: mustprogress nounwind uwtable
define void @_ZN3gmx16imdsock_shutdownEPNS_9IMDSocketE(ptr noundef %0) #0 {
  %2 = alloca ptr, align 8
  %3 = alloca i32, align 4
  %4 = alloca i32, align 4
  store ptr %0, ptr %2, align 8, !tbaa !4
  call void @llvm.lifetime.start.p0(i64 4, ptr %3) #10
  store i32 -1, ptr %3, align 4, !tbaa !15
  %5 = load ptr, ptr %2, align 8, !tbaa !4
  %6 = icmp eq ptr %5, null
  br i1 %6, label %7, label %8

7:                                                ; preds = %1
  store i32 1, ptr %4, align 4
  br label %22

8:                                                ; preds = %1
  %9 = load ptr, ptr %2, align 8, !tbaa !4
  %10 = getelementptr inbounds nuw %"struct.gmx::IMDSocket", ptr %9, i32 0, i32 1
  %11 = load i32, ptr %10, align 4, !tbaa !9
  %12 = call i32 @shutdown(i32 noundef %11, i32 noundef 1) #10
  store i32 %12, ptr %3, align 4, !tbaa !15
  %13 = load i32, ptr %3, align 4, !tbaa !15
  %14 = icmp eq i32 %13, -1
  br i1 %14, label %15, label %21

15:                                               ; preds = %8
  %16 = load ptr, ptr @stderr, align 8, !tbaa !23
  %17 = call i32 (ptr, ptr, ...) @fprintf(ptr noundef %16, ptr noundef @.str.6, ptr noundef @_ZN3gmxL6IMDstrE) #10
  %18 = call ptr @__errno_location() #11
  %19 = load i32, ptr %18, align 4, !tbaa !15
  %20 = call ptr @strerror(i32 noundef %19) #10
  call void @_ZN3gmxL15print_IMD_errorEPKciPc(ptr noundef @.str.1, i32 noundef 365, ptr noundef %20)
  br label %21

21:                                               ; preds = %15, %8
  store i32 0, ptr %4, align 4
  br label %22

22:                                               ; preds = %21, %7
  call void @llvm.lifetime.end.p0(i64 4, ptr %3) #10
  %23 = load i32, ptr %4, align 4
  switch i32 %23, label %25 [
    i32 0, label %24
    i32 1, label %24
  ]

24:                                               ; preds = %22, %22
  ret void

25:                                               ; preds = %22
  unreachable
}