; Function Attrs: mustprogress nounwind uwtable
define void @_ZN3gmx16imdsock_shutdownEPNS_9IMDSocketE(ptr noundef readonly %0) local_unnamed_addr #8 {
  %2 = icmp eq ptr %0, null
  br i1 %2, label %14, label %3

3:                                                ; preds = %1
  %4 = getelementptr inbounds nuw i8, ptr %0, i64 16
  %5 = load i32, ptr %4, align 4, !tbaa !4
  %6 = tail call i32 @shutdown(i32 noundef %5, i32 noundef 1) #14
  %7 = icmp eq i32 %6, -1
  br i1 %7, label %8, label %14

8:                                                ; preds = %3
  %9 = load ptr, ptr @stderr, align 8, !tbaa !13
  %10 = tail call i32 (ptr, ptr, ...) @fprintf(ptr noundef %9, ptr noundef nonnull @.str.6, ptr noundef nonnull @_ZN3gmxL6IMDstrE) #16
  %11 = tail call ptr @__errno_location() #15
  %12 = load i32, ptr %11, align 4, !tbaa !12
  %13 = tail call ptr @strerror(i32 noundef %12) #14
  tail call fastcc void @_ZN3gmxL15print_IMD_errorEPKciPc(i32 noundef 365, ptr noundef %13)
  br label %14

14:                                               ; preds = %3, %8, %1
  ret void
}